target datalayout = "e-m:e-p270:32:32-p271:32:32-p272:64:64-i64:64-i128:128-f80:128-n8:16:32:64-S128"
target triple = "x86_64-pc-linux-gnu"

@Truth6 = internal global [6 x i64] [i64 -6148914691236517206, i64 -3689348814741910324, i64 -1085102592571150096, i64 -71777214294589696, i64 -281470681808896, i64 -4294967296], align 16

; Function Attrs: inlinehint nounwind uwtable
define internal i64 @If_Dec6SwapAdjacent(i64 noundef %0, i32 noundef %1) #3 {
  %3 = alloca i64, align 8
  %4 = alloca i32, align 4
  store i64 %0, ptr %3, align 8, !tbaa !3
  store i32 %1, ptr %4, align 4, !tbaa !7
  %5 = load i64, ptr %3, align 8, !tbaa !3
  %6 = load i32, ptr %4, align 4, !tbaa !7
  %7 = sext i32 %6 to i64
  %8 = getelementptr inbounds [5 x [3 x i64]], ptr @PMasks, i64 0, i64 %7
  %9 = getelementptr inbounds [3 x i64], ptr %8, i64 0, i64 0
  %10 = load i64, ptr %9, align 8, !tbaa !3
  %11 = and i64 %5, %10
  %12 = load i64, ptr %3, align 8, !tbaa !3
  %13 = load i32, ptr %4, align 4, !tbaa !7
  %14 = sext i32 %13 to i64
  %15 = getelementptr inbounds [5 x [3 x i64]], ptr @PMasks, i64 0, i64 %14
  %16 = getelementptr inbounds [3 x i64], ptr %15, i64 0, i64 1
  %17 = load i64, ptr %16, align 8, !tbaa !3
  %18 = and i64 %12, %17
  %19 = load i32, ptr %4, align 4, !tbaa !7
  %20 = shl i32 1, %19
  %21 = zext i32 %20 to i64
  %22 = shl i64 %18, %21
  %23 = or i64 %11, %22
  %24 = load i64, ptr %3, align 8, !tbaa !3
  %25 = load i32, ptr %4, align 4, !tbaa !7
  %26 = sext i32 %25 to i64
  %27 = getelementptr inbounds [5 x [3 x i64]], ptr @PMasks, i64 0, i64 %26
  %28 = getelementptr inbounds [3 x i64], ptr %27, i64 0, i64 2
  %29 = load i64, ptr %28, align 8, !tbaa !3
  %30 = and i64 %24, %29
  %31 = load i32, ptr %4, align 4, !tbaa !7
  %32 = shl i32 1, %31
  %33 = zext i32 %32 to i64
  %34 = lshr i64 %30, %33
  %35 = or i64 %23, %34
  ret i64 %35
}

; Function Attrs: inlinehint nounwind uwtable
define internal void @If_Dec7SwapAdjacent(ptr noundef %0, i32 noundef %1) #3 {
  %3 = alloca ptr, align 8
  %4 = alloca i32, align 4
  %5 = alloca i32, align 4
  store ptr %0, ptr %3, align 8, !tbaa !15
  store i32 %1, ptr %4, align 4, !tbaa !7
  %6 = load i32, ptr %4, align 4, !tbaa !7
  %7 = icmp eq i32 %6, 5
  br i1 %7, label %8, label %37

8:                                                ; preds = %2
  call void @llvm.lifetime.start.p0(i64 4, ptr %5) #7
  %9 = load ptr, ptr %3, align 8, !tbaa !15
  %10 = getelementptr inbounds i64, ptr %9, i64 0
  %11 = load i64, ptr %10, align 8, !tbaa !3
  %12 = lshr i64 %11, 32
  %13 = trunc i64 %12 to i32
  store i32 %13, ptr %5, align 4, !tbaa !7
  %14 = load ptr, ptr %3, align 8, !tbaa !15
  %15 = getelementptr inbounds i64, ptr %14, i64 0
  %16 = load i64, ptr %15, align 8, !tbaa !3
  %17 = and i64 %16, 4294967295
  %18 = load ptr, ptr %3, align 8, !tbaa !15
  %19 = getelementptr inbounds i64, ptr %18, i64 1
  %20 = load i64, ptr %19, align 8, !tbaa !3
  %21 = and i64 %20, 4294967295
  %22 = shl i64 %21, 32
  %23 = or i64 %17, %22
  %24 = load ptr, ptr %3, align 8, !tbaa !15
  %25 = getelementptr inbounds i64, ptr %24, i64 0
  store i64 %23, ptr %25, align 8, !tbaa !3
  %26 = load ptr, ptr %3, align 8, !tbaa !15
  %27 = getelementptr inbounds i64, ptr %26, i64 1
  %28 = load i64, ptr %27, align 8, !tbaa !3
  %29 = and i64 %28, 4294967295
  %30 = load i32, ptr %5, align 4, !tbaa !7
  %31 = zext i32 %30 to i64
  %32 = xor i64 %29, %31
  %33 = load ptr, ptr %3, align 8, !tbaa !15
  %34 = getelementptr inbounds i64, ptr %33, i64 1
  %35 = load i64, ptr %34, align 8, !tbaa !3
  %36 = xor i64 %35, %32
  store i64 %36, ptr %34, align 8, !tbaa !3
  call void @llvm.lifetime.end.p0(i64 4, ptr %5) #7
  br label %52

37:                                               ; preds = %2
  %38 = load ptr, ptr %3, align 8, !tbaa !15
  %39 = getelementptr inbounds i64, ptr %38, i64 0
  %40 = load i64, ptr %39, align 8, !tbaa !3
  %41 = load i32, ptr %4, align 4, !tbaa !7
  %42 = call i64 @If_Dec6SwapAdjacent(i64 noundef %40, i32 noundef %41)
  %43 = load ptr, ptr %3, align 8, !tbaa !15
  %44 = getelementptr inbounds i64, ptr %43, i64 0
  store i64 %42, ptr %44, align 8, !tbaa !3
  %45 = load ptr, ptr %3, align 8, !tbaa !15
  %46 = getelementptr inbounds i64, ptr %45, i64 1
  %47 = load i64, ptr %46, align 8, !tbaa !3
  %48 = load i32, ptr %4, align 4, !tbaa !7
  %49 = call i64 @If_Dec6SwapAdjacent(i64 noundef %47, i32 noundef %48)
  %50 = load ptr, ptr %3, align 8, !tbaa !15
  %51 = getelementptr inbounds i64, ptr %50, i64 1
  store i64 %49, ptr %51, align 8, !tbaa !3
  br label %52

52:                                               ; preds = %37, %8
  ret void
}

; Function Attrs: inlinehint nounwind uwtable
define internal void @If_Dec7TruthShrink(ptr noundef %0, i32 noundef %1, i32 noundef %2, i32 noundef %3) #3 {
  %5 = alloca ptr, align 8
  %6 = alloca i32, align 4
  %7 = alloca i32, align 4
  %8 = alloca i32, align 4
  %9 = alloca i32, align 4
  %10 = alloca i32, align 4
  %11 = alloca i32, align 4
  store ptr %0, ptr %5, align 8, !tbaa !15
  store i32 %1, ptr %6, align 4, !tbaa !7
  store i32 %2, ptr %7, align 4, !tbaa !7
  store i32 %3, ptr %8, align 4, !tbaa !7
  call void @llvm.lifetime.start.p0(i64 4, ptr %9) #7
  call void @llvm.lifetime.start.p0(i64 4, ptr %10) #7
  call void @llvm.lifetime.start.p0(i64 4, ptr %11) #7
  store i32 0, ptr %11, align 4, !tbaa !7
  store i32 0, ptr %9, align 4, !tbaa !7
  br label %12

12:                                               ; preds = %39, %4
  %13 = load i32, ptr %9, align 4, !tbaa !7
  %14 = load i32, ptr %7, align 4, !tbaa !7
  %15 = icmp slt i32 %13, %14
  br i1 %15, label %16, label %42

16:                                               ; preds = %12
  %17 = load i32, ptr %8, align 4, !tbaa !7
  %18 = load i32, ptr %9, align 4, !tbaa !7
  %19 = shl i32 1, %18
  %20 = and i32 %17, %19
  %21 = icmp ne i32 %20, 0
  br i1 %21, label %22, label %38

22:                                               ; preds = %16
  %23 = load i32, ptr %9, align 4, !tbaa !7
  %24 = sub nsw i32 %23, 1
  store i32 %24, ptr %10, align 4, !tbaa !7
  br label %25

25:                                               ; preds = %32, %22
  %26 = load i32, ptr %10, align 4, !tbaa !7
  %27 = load i32, ptr %11, align 4, !tbaa !7
  %28 = icmp sge i32 %26, %27
  br i1 %28, label %29, label %35

29:                                               ; preds = %25
  %30 = load ptr, ptr %5, align 8, !tbaa !15
  %31 = load i32, ptr %10, align 4, !tbaa !7
  call void @If_Dec7SwapAdjacent(ptr noundef %30, i32 noundef %31)
  br label %32

32:                                               ; preds = %29
  %33 = load i32, ptr %10, align 4, !tbaa !7
  %34 = add nsw i32 %33, -1
  store i32 %34, ptr %10, align 4, !tbaa !7
  br label %25, !llvm.loop !52

35:                                               ; preds = %25
  %36 = load i32, ptr %11, align 4, !tbaa !7
  %37 = add nsw i32 %36, 1
  store i32 %37, ptr %11, align 4, !tbaa !7
  br label %38

38:                                               ; preds = %35, %16
  br label %39

39:                                               ; preds = %38
  %40 = load i32, ptr %9, align 4, !tbaa !7
  %41 = add nsw i32 %40, 1
  store i32 %41, ptr %9, align 4, !tbaa !7
  br label %12, !llvm.loop !53

42:                                               ; preds = %12
  call void @llvm.lifetime.end.p0(i64 4, ptr %11) #7
  call void @llvm.lifetime.end.p0(i64 4, ptr %10) #7
  call void @llvm.lifetime.end.p0(i64 4, ptr %9) #7
  ret void
}

; Function Attrs: inlinehint nounwind uwtable
define internal i32 @If_DecSuppIsMinBase(i32 noundef %0) #3 {
  %2 = alloca i32, align 4
  store i32 %0, ptr %2, align 4, !tbaa !7
  %3 = load i32, ptr %2, align 4, !tbaa !7
  %4 = load i32, ptr %2, align 4, !tbaa !7
  %5 = add nsw i32 %4, 1
  %6 = and i32 %3, %5
  %7 = icmp eq i32 %6, 0
  %8 = zext i1 %7 to i32
  ret i32 %8
}

; Function Attrs: inlinehint nounwind uwtable
define internal i32 @If_Dec7HasVar(ptr noundef %0, i32 noundef %1) #3 {
  %3 = alloca i32, align 4
  %4 = alloca ptr, align 8
  %5 = alloca i32, align 4
  store ptr %0, ptr %4, align 8, !tbaa !15
  store i32 %1, ptr %5, align 4, !tbaa !7
  %6 = load i32, ptr %5, align 4, !tbaa !7
  %7 = icmp eq i32 %6, 6
  br i1 %7, label %8, label %17

8:                                                ; preds = %2
  %9 = load ptr, ptr %4, align 8, !tbaa !15
  %10 = getelementptr inbounds i64, ptr %9, i64 0
  %11 = load i64, ptr %10, align 8, !tbaa !3
  %12 = load ptr, ptr %4, align 8, !tbaa !15
  %13 = getelementptr inbounds i64, ptr %12, i64 1
  %14 = load i64, ptr %13, align 8, !tbaa !3
  %15 = icmp ne i64 %11, %14
  %16 = zext i1 %15 to i32
  store i32 %16, ptr %3, align 4
  br label %66

17:                                               ; preds = %2
  %18 = load ptr, ptr %4, align 8, !tbaa !15
  %19 = getelementptr inbounds i64, ptr %18, i64 0
  %20 = load i64, ptr %19, align 8, !tbaa !3
  %21 = load i32, ptr %5, align 4, !tbaa !7
  %22 = sext i32 %21 to i64
  %23 = getelementptr inbounds [6 x i64], ptr @Truth6, i64 0, i64 %22
  %24 = load i64, ptr %23, align 8, !tbaa !3
  %25 = and i64 %20, %24
  %26 = load i32, ptr %5, align 4, !tbaa !7
  %27 = shl i32 1, %26
  %28 = zext i32 %27 to i64
  %29 = lshr i64 %25, %28
  %30 = load ptr, ptr %4, align 8, !tbaa !15
  %31 = getelementptr inbounds i64, ptr %30, i64 0
  %32 = load i64, ptr %31, align 8, !tbaa !3
  %33 = load i32, ptr %5, align 4, !tbaa !7
  %34 = sext i32 %33 to i64
  %35 = getelementptr inbounds [6 x i64], ptr @Truth6, i64 0, i64 %34
  %36 = load i64, ptr %35, align 8, !tbaa !3
  %37 = xor i64 %36, -1
  %38 = and i64 %32, %37
  %39 = icmp ne i64 %29, %38
  br i1 %39, label %63, label %40

40:                                               ; preds = %17
  %41 = load ptr, ptr %4, align 8, !tbaa !15
  %42 = getelementptr inbounds i64, ptr %41, i64 1
  %43 = load i64, ptr %42, align 8, !tbaa !3
  %44 = load i32, ptr %5, align 4, !tbaa !7
  %45 = sext i32 %44 to i64
  %46 = getelementptr inbounds [6 x i64], ptr @Truth6, i64 0, i64 %45
  %47 = load i64, ptr %46, align 8, !tbaa !3
  %48 = and i64 %43, %47
  %49 = load i32, ptr %5, align 4, !tbaa !7
  %50 = shl i32 1, %49
  %51 = zext i32 %50 to i64
  %52 = lshr i64 %48, %51
  %53 = load ptr, ptr %4, align 8, !tbaa !15
  %54 = getelementptr inbounds i64, ptr %53, i64 1
  %55 = load i64, ptr %54, align 8, !tbaa !3
  %56 = load i32, ptr %5, align 4, !tbaa !7
  %57 = sext i32 %56 to i64
  %58 = getelementptr inbounds [6 x i64], ptr @Truth6, i64 0, i64 %57
  %59 = load i64, ptr %58, align 8, !tbaa !3
  %60 = xor i64 %59, -1
  %61 = and i64 %55, %60
  %62 = icmp ne i64 %52, %61
  br label %63

63:                                               ; preds = %40, %17
  %64 = phi i1 [ true, %17 ], [ %62, %40 ]
  %65 = zext i1 %64 to i32
  store i32 %65, ptr %3, align 4
  br label %66

66:                                               ; preds = %63, %8
  %67 = load i32, ptr %3, align 4
  ret i32 %67
}

; Function Attrs: nounwind uwtable
define void @If_Dec7MinimumBase(ptr noundef %0, ptr noundef %1, i32 noundef %2, ptr noundef %3) #0 {
  %5 = alloca ptr, align 8
  %6 = alloca ptr, align 8
  %7 = alloca i32, align 4
  %8 = alloca ptr, align 8
  %9 = alloca i32, align 4
  %10 = alloca i32, align 4
  %11 = alloca i32, align 4
  %12 = alloca i32, align 4
  store ptr %0, ptr %5, align 8, !tbaa !15
  store ptr %1, ptr %6, align 8, !tbaa !27
  store i32 %2, ptr %7, align 4, !tbaa !7
  store ptr %3, ptr %8, align 8, !tbaa !27
  call void @llvm.lifetime.start.p0(i64 4, ptr %9) #7
  call void @llvm.lifetime.start.p0(i64 4, ptr %10) #7
  store i32 0, ptr %10, align 4, !tbaa !7
  call void @llvm.lifetime.start.p0(i64 4, ptr %11) #7
  store i32 0, ptr %11, align 4, !tbaa !7
  store i32 0, ptr %9, align 4, !tbaa !7
  br label %13

13:                                               ; preds = %43, %4
  %14 = load i32, ptr %9, align 4, !tbaa !7
  %15 = load i32, ptr %7, align 4, !tbaa !7
  %16 = icmp slt i32 %14, %15
  br i1 %16, label %17, label %46

17:                                               ; preds = %13
  %18 = load ptr, ptr %5, align 8, !tbaa !15
  %19 = load i32, ptr %9, align 4, !tbaa !7
  %20 = call i32 @If_Dec7HasVar(ptr noundef %18, i32 noundef %19)
  %21 = icmp ne i32 %20, 0
  br i1 %21, label %22, label %42

22:                                               ; preds = %17
  %23 = load i32, ptr %9, align 4, !tbaa !7
  %24 = shl i32 1, %23
  %25 = load i32, ptr %11, align 4, !tbaa !7
  %26 = or i32 %25, %24
  store i32 %26, ptr %11, align 4, !tbaa !7
  %27 = load ptr, ptr %6, align 8, !tbaa !27
  %28 = icmp ne ptr %27, null
  br i1 %28, label %29, label %39

29:                                               ; preds = %22
  %30 = load ptr, ptr %6, align 8, !tbaa !27
  %31 = load i32, ptr %9, align 4, !tbaa !7
  %32 = sext i32 %31 to i64
  %33 = getelementptr inbounds i32, ptr %30, i64 %32
  %34 = load i32, ptr %33, align 4, !tbaa !7
  %35 = load ptr, ptr %6, align 8, !tbaa !27
  %36 = load i32, ptr %10, align 4, !tbaa !7
  %37 = sext i32 %36 to i64
  %38 = getelementptr inbounds i32, ptr %35, i64 %37
  store i32 %34, ptr %38, align 4, !tbaa !7
  br label %39

39:                                               ; preds = %29, %22
  %40 = load i32, ptr %10, align 4, !tbaa !7
  %41 = add nsw i32 %40, 1
  store i32 %41, ptr %10, align 4, !tbaa !7
  br label %42

42:                                               ; preds = %39, %17
  br label %43

43:                                               ; preds = %42
  %44 = load i32, ptr %9, align 4, !tbaa !7
  %45 = add nsw i32 %44, 1
  store i32 %45, ptr %9, align 4, !tbaa !7
  br label %13, !llvm.loop !51

46:                                               ; preds = %13
  %47 = load ptr, ptr %8, align 8, !tbaa !27
  %48 = icmp ne ptr %47, null
  br i1 %48, label %49, label %52

49:                                               ; preds = %46
  %50 = load i32, ptr %10, align 4, !tbaa !7
  %51 = load ptr, ptr %8, align 8, !tbaa !27
  store i32 %50, ptr %51, align 4, !tbaa !7
  br label %52

52:                                               ; preds = %49, %46
  %53 = load i32, ptr %11, align 4, !tbaa !7
  %54 = call i32 @If_DecSuppIsMinBase(i32 noundef %53)
  %55 = icmp ne i32 %54, 0
  br i1 %55, label %56, label %57

56:                                               ; preds = %52
  store i32 1, ptr %12, align 4
  br label %62

57:                                               ; preds = %52
  %58 = load ptr, ptr %5, align 8, !tbaa !15
  %59 = load i32, ptr %10, align 4, !tbaa !7
  %60 = load i32, ptr %7, align 4, !tbaa !7
  %61 = load i32, ptr %11, align 4, !tbaa !7
  call void @If_Dec7TruthShrink(ptr noundef %58, i32 noundef %59, i32 noundef %60, i32 noundef %61)
  store i32 0, ptr %12, align 4
  br label %62

62:                                               ; preds = %57, %56
  call void @llvm.lifetime.end.p0(i64 4, ptr %11) #7
  call void @llvm.lifetime.end.p0(i64 4, ptr %10) #7
  call void @llvm.lifetime.end.p0(i64 4, ptr %9) #7
  %63 = load i32, ptr %12, align 4
  switch i32 %63, label %65 [
    i32 0, label %64
    i32 1, label %64
  ]

64:                                               ; preds = %62, %62
  ret void

65:                                               ; preds = %62
  unreachable
}