; Function Attrs: nofree norecurse nosync nounwind memory(argmem: readwrite) uwtable
define void @If_Dec7MinimumBase(ptr noundef captures(none) %0, ptr noundef %1, i32 noundef %2, ptr noundef writeonly %3) local_unnamed_addr #6 {
  %5 = icmp sgt i32 %2, 0
  br i1 %5, label %.lr.ph, label %._crit_edge

.lr.ph:                                           ; preds = %4
  %6 = load i64, ptr %0, align 8, !tbaa !10
  %7 = getelementptr inbounds nuw i8, ptr %0, i64 8
  %.not28 = icmp eq ptr %1, null
  %wide.trip.count45 = zext nneg i32 %2 to i64
  br i1 %.not28, label %.lr.ph.split.us, label %.lr.ph.split

.lr.ph.split.us:                                  ; preds = %.lr.ph, %27
  %indvars.iv42 = phi i64 [ %indvars.iv.next43, %27 ], [ 0, %.lr.ph ]
  %.037.us = phi i32 [ %.1.us, %27 ], [ 0, %.lr.ph ]
  %.02036.us = phi i32 [ %.121.us, %27 ], [ 0, %.lr.ph ]
  %8 = icmp eq i64 %indvars.iv42, 6
  br i1 %8, label %19, label %9

9:                                                ; preds = %.lr.ph.split.us
  %10 = getelementptr inbounds nuw [6 x i64], ptr @s_Truths6, i64 0, i64 %indvars.iv42
  %11 = load i64, ptr %10, align 8, !tbaa !10
  %12 = and i64 %11, %6
  %13 = trunc nuw nsw i64 %indvars.iv42 to i32
  %14 = shl nuw i32 1, %13
  %15 = zext i32 %14 to i64
  %16 = lshr i64 %12, %15
  %17 = xor i64 %11, -1
  %18 = and i64 %6, %17
  %.not.i.us = icmp eq i64 %16, %18
  br i1 %.not.i.us, label %If_Dec7HasVar.exit.us, label %If_Dec7HasVar.exit.thread.us

19:                                               ; preds = %.lr.ph.split.us
  %20 = load i64, ptr %7, align 8, !tbaa !10
  %.not57 = icmp eq i64 %6, %20
  br i1 %.not57, label %27, label %If_Dec7HasVar.exit.us.If_Dec7HasVar.exit.thread.us_crit_edge

If_Dec7HasVar.exit.us:                            ; preds = %9
  %21 = load i64, ptr %7, align 8, !tbaa !10
  %22 = and i64 %21, %11
  %23 = lshr i64 %22, %15
  %24 = and i64 %21, %17
  %.not56 = icmp eq i64 %23, %24
  br i1 %.not56, label %27, label %If_Dec7HasVar.exit.us.If_Dec7HasVar.exit.thread.us_crit_edge

If_Dec7HasVar.exit.us.If_Dec7HasVar.exit.thread.us_crit_edge: ; preds = %19, %If_Dec7HasVar.exit.us
  %.pre = trunc nuw nsw i64 %indvars.iv42 to i32
  %.pre47 = shl nuw i32 1, %.pre
  br label %If_Dec7HasVar.exit.thread.us

If_Dec7HasVar.exit.thread.us:                     ; preds = %If_Dec7HasVar.exit.us.If_Dec7HasVar.exit.thread.us_crit_edge, %9
  %.pre-phi48 = phi i32 [ %.pre47, %If_Dec7HasVar.exit.us.If_Dec7HasVar.exit.thread.us_crit_edge ], [ %14, %9 ]
  %25 = or i32 %.037.us, %.pre-phi48
  %26 = add nsw i32 %.02036.us, 1
  br label %27

27:                                               ; preds = %19, %If_Dec7HasVar.exit.thread.us, %If_Dec7HasVar.exit.us
  %.121.us = phi i32 [ %26, %If_Dec7HasVar.exit.thread.us ], [ %.02036.us, %If_Dec7HasVar.exit.us ], [ %.02036.us, %19 ]
  %.1.us = phi i32 [ %25, %If_Dec7HasVar.exit.thread.us ], [ %.037.us, %If_Dec7HasVar.exit.us ], [ %.037.us, %19 ]
  %indvars.iv.next43 = add nuw nsw i64 %indvars.iv42, 1
  %exitcond46.not = icmp eq i64 %indvars.iv.next43, %wide.trip.count45
  br i1 %exitcond46.not, label %._crit_edge, label %.lr.ph.split.us, !llvm.loop !46

.lr.ph.split:                                     ; preds = %.lr.ph, %51
  %indvars.iv = phi i64 [ %indvars.iv.next, %51 ], [ 0, %.lr.ph ]
  %.037 = phi i32 [ %.1, %51 ], [ 0, %.lr.ph ]
  %.02036 = phi i32 [ %.121, %51 ], [ 0, %.lr.ph ]
  %28 = icmp eq i64 %indvars.iv, 6
  br i1 %28, label %29, label %31

29:                                               ; preds = %.lr.ph.split
  %30 = load i64, ptr %7, align 8, !tbaa !10
  %.not55 = icmp eq i64 %6, %30
  br i1 %.not55, label %51, label %If_Dec7HasVar.exit.If_Dec7HasVar.exit.thread_crit_edge

31:                                               ; preds = %.lr.ph.split
  %32 = getelementptr inbounds nuw [6 x i64], ptr @s_Truths6, i64 0, i64 %indvars.iv
  %33 = load i64, ptr %32, align 8, !tbaa !10
  %34 = and i64 %33, %6
  %35 = trunc nuw nsw i64 %indvars.iv to i32
  %36 = shl nuw i32 1, %35
  %37 = zext i32 %36 to i64
  %38 = lshr i64 %34, %37
  %39 = xor i64 %33, -1
  %40 = and i64 %6, %39
  %.not.i = icmp eq i64 %38, %40
  br i1 %.not.i, label %If_Dec7HasVar.exit, label %If_Dec7HasVar.exit.thread

If_Dec7HasVar.exit:                               ; preds = %31
  %41 = load i64, ptr %7, align 8, !tbaa !10
  %42 = and i64 %41, %33
  %43 = lshr i64 %42, %37
  %44 = and i64 %41, %39
  %.not54 = icmp eq i64 %43, %44
  br i1 %.not54, label %51, label %If_Dec7HasVar.exit.If_Dec7HasVar.exit.thread_crit_edge

If_Dec7HasVar.exit.If_Dec7HasVar.exit.thread_crit_edge: ; preds = %29, %If_Dec7HasVar.exit
  %.pre49 = trunc nuw nsw i64 %indvars.iv to i32
  %.pre51 = shl nuw i32 1, %.pre49
  br label %If_Dec7HasVar.exit.thread

If_Dec7HasVar.exit.thread:                        ; preds = %If_Dec7HasVar.exit.If_Dec7HasVar.exit.thread_crit_edge, %31
  %.pre-phi52 = phi i32 [ %.pre51, %If_Dec7HasVar.exit.If_Dec7HasVar.exit.thread_crit_edge ], [ %36, %31 ]
  %45 = or i32 %.037, %.pre-phi52
  %46 = getelementptr inbounds nuw i32, ptr %1, i64 %indvars.iv
  %47 = load i32, ptr %46, align 4, !tbaa !3
  %48 = sext i32 %.02036 to i64
  %49 = getelementptr inbounds i32, ptr %1, i64 %48
  store i32 %47, ptr %49, align 4, !tbaa !3
  %50 = add nsw i32 %.02036, 1
  br label %51

51:                                               ; preds = %29, %If_Dec7HasVar.exit, %If_Dec7HasVar.exit.thread
  %.121 = phi i32 [ %50, %If_Dec7HasVar.exit.thread ], [ %.02036, %If_Dec7HasVar.exit ], [ %.02036, %29 ]
  %.1 = phi i32 [ %45, %If_Dec7HasVar.exit.thread ], [ %.037, %If_Dec7HasVar.exit ], [ %.037, %29 ]
  %indvars.iv.next = add nuw nsw i64 %indvars.iv, 1
  %exitcond.not = icmp eq i64 %indvars.iv.next, %wide.trip.count45
  br i1 %exitcond.not, label %._crit_edge, label %.lr.ph.split, !llvm.loop !46

._crit_edge:                                      ; preds = %51, %27, %4
  %.020.lcssa = phi i32 [ 0, %4 ], [ %.121.us, %27 ], [ %.121, %51 ]
  %.0.lcssa = phi i32 [ 0, %4 ], [ %.1.us, %27 ], [ %.1, %51 ]
  %.not = icmp eq ptr %3, null
  br i1 %.not, label %53, label %52

52:                                               ; preds = %._crit_edge
  store i32 %.020.lcssa, ptr %3, align 4, !tbaa !3
  br label %53

53:                                               ; preds = %52, %._crit_edge
  %54 = add nsw i32 %.0.lcssa, 1
  %55 = and i32 %54, %.0.lcssa
  %56 = icmp ne i32 %55, 0
  %or.cond = and i1 %5, %56
  br i1 %or.cond, label %.lr.ph20.i, label %If_Dec7TruthShrink.exit

.lr.ph20.i:                                       ; preds = %53
  %57 = getelementptr inbounds nuw i8, ptr %0, i64 8
  %wide.trip.count.i = zext nneg i32 %2 to i64
  br label %58

58:                                               ; preds = %96, %.lr.ph20.i
  %indvars.iv.i = phi i64 [ 0, %.lr.ph20.i ], [ %indvars.iv.next.i, %96 ]
  %.018.i = phi i32 [ 0, %.lr.ph20.i ], [ %.1.i, %96 ]
  %indvars25.i = trunc i64 %indvars.iv.i to i32
  %59 = shl nuw i32 1, %indvars25.i
  %60 = and i32 %59, %.0.lcssa
  %.not.i29 = icmp eq i32 %60, 0
  br i1 %.not.i29, label %96, label %.preheader.i

.preheader.i:                                     ; preds = %58
  %.not13.not14.i = icmp slt i32 %.018.i, %indvars25.i
  br i1 %.not13.not14.i, label %.lr.ph.i, label %._crit_edge.i

.lr.ph.i:                                         ; preds = %.preheader.i
  %.promoted.i = load i64, ptr %0, align 8, !tbaa !10
  %61 = sext i32 %.018.i to i64
  %.promoted26.i = load i64, ptr %57, align 8
  br label %62

62:                                               ; preds = %If_Dec7SwapAdjacent.exit.i, %.lr.ph.i
  %storemerge27.i = phi i64 [ %.promoted26.i, %.lr.ph.i ], [ %storemerge.i, %If_Dec7SwapAdjacent.exit.i ]
  %indvars.iv22.i = phi i64 [ %indvars.iv.i, %.lr.ph.i ], [ %indvars.iv.next23.i, %If_Dec7SwapAdjacent.exit.i ]
  %63 = phi i64 [ %.promoted.i, %.lr.ph.i ], [ %.sink, %If_Dec7SwapAdjacent.exit.i ]
  %indvars.iv.next23.i = add nsw i64 %indvars.iv22.i, -1
  %64 = icmp eq i64 %indvars.iv.next23.i, 5
  br i1 %64, label %65, label %71

65:                                               ; preds = %62
  %66 = lshr i64 %63, 32
  %67 = and i64 %63, 4294967295
  %68 = shl i64 %storemerge27.i, 32
  %69 = or disjoint i64 %67, %68
  %and.ra.i.i = and i64 %storemerge27.i, -4294967296
  %70 = or disjoint i64 %66, %and.ra.i.i
  br label %If_Dec7SwapAdjacent.exit.i

71:                                               ; preds = %62
  %72 = getelementptr inbounds [5 x [3 x i64]], ptr @PMasks, i64 0, i64 %indvars.iv.next23.i
  %73 = load i64, ptr %72, align 8, !tbaa !10
  %74 = and i64 %73, %63
  %75 = getelementptr inbounds nuw i8, ptr %72, i64 8
  %76 = load i64, ptr %75, align 8, !tbaa !10
  %77 = and i64 %76, %63
  %78 = trunc nsw i64 %indvars.iv.next23.i to i32
  %79 = shl nuw i32 1, %78
  %80 = zext i32 %79 to i64
  %81 = shl i64 %77, %80
  %82 = or i64 %81, %74
  %83 = getelementptr inbounds nuw i8, ptr %72, i64 16
  %84 = load i64, ptr %83, align 8, !tbaa !10
  %85 = and i64 %84, %63
  %86 = lshr i64 %85, %80
  %87 = or i64 %82, %86
  %88 = and i64 %73, %storemerge27.i
  %89 = and i64 %76, %storemerge27.i
  %90 = shl i64 %89, %80
  %91 = or i64 %90, %88
  %92 = and i64 %84, %storemerge27.i
  %93 = lshr i64 %92, %80
  %94 = or i64 %91, %93
  br label %If_Dec7SwapAdjacent.exit.i

If_Dec7SwapAdjacent.exit.i:                       ; preds = %71, %65
  %.sink = phi i64 [ %69, %65 ], [ %87, %71 ]
  %storemerge.i = phi i64 [ %70, %65 ], [ %94, %71 ]
  %.not13.not.i = icmp sgt i64 %indvars.iv.next23.i, %61
  br i1 %.not13.not.i, label %62, label %._crit_edge.loopexit.i, !llvm.loop !47

._crit_edge.loopexit.i:                           ; preds = %If_Dec7SwapAdjacent.exit.i
  store i64 %.sink, ptr %0, align 8, !tbaa !10
  store i64 %storemerge.i, ptr %57, align 8, !tbaa !10
  br label %._crit_edge.i

._crit_edge.i:                                    ; preds = %._crit_edge.loopexit.i, %.preheader.i
  %95 = add nsw i32 %.018.i, 1
  br label %96

96:                                               ; preds = %._crit_edge.i, %58
  %.1.i = phi i32 [ %95, %._crit_edge.i ], [ %.018.i, %58 ]
  %indvars.iv.next.i = add nuw nsw i64 %indvars.iv.i, 1
  %exitcond.not.i = icmp eq i64 %indvars.iv.next.i, %wide.trip.count.i
  br i1 %exitcond.not.i, label %If_Dec7TruthShrink.exit, label %58, !llvm.loop !48

If_Dec7TruthShrink.exit:                          ; preds = %96, %53
  ret void
}